target datalayout = "e-m:e-p270:32:32-p271:32:32-p272:64:64-i64:64-i128:128-f80:128-n8:16:32:64-S128"
target triple = "x86_64-pc-linux-gnu"

@.str = private unnamed_addr constant [34 x i8] c"../openssl/crypto/evp/evp_fetch.c\00", align 1
@__func__.evp_set_parsed_default_properties = private unnamed_addr constant [34 x i8] c"evp_set_parsed_default_properties\00", align 1

; Function Attrs: nounwind uwtable
define internal ptr @get_evp_method_store(ptr noundef %0) #0 {
  %2 = alloca ptr, align 8
  store ptr %0, ptr %2, align 8, !tbaa !3
  %3 = load ptr, ptr %2, align 8, !tbaa !3
  %4 = call ptr @ossl_lib_ctx_get_data(ptr noundef %3, i32 noundef 0)
  ret ptr %4
}

; Function Attrs: nounwind uwtable
define internal i32 @evp_set_parsed_default_properties(ptr noundef %0, ptr noundef %1, i32 noundef %2, i32 noundef %3) #0 {
  %5 = alloca i32, align 4
  %6 = alloca ptr, align 8
  %7 = alloca ptr, align 8
  %8 = alloca i32, align 4
  %9 = alloca i32, align 4
  %10 = alloca ptr, align 8
  %11 = alloca ptr, align 8
  %12 = alloca i32, align 4
  %13 = alloca ptr, align 8
  %14 = alloca i64, align 8
  %15 = alloca i32, align 4
  store ptr %0, ptr %6, align 8, !tbaa !3
  store ptr %1, ptr %7, align 8, !tbaa !31
  store i32 %2, ptr %8, align 4, !tbaa !8
  store i32 %3, ptr %9, align 4, !tbaa !8
  call void @llvm.lifetime.start.p0(i64 8, ptr %10) #6
  %16 = load ptr, ptr %6, align 8, !tbaa !3
  %17 = call ptr @get_evp_method_store(ptr noundef %16)
  store ptr %17, ptr %10, align 8, !tbaa !21
  call void @llvm.lifetime.start.p0(i64 8, ptr %11) #6
  %18 = load ptr, ptr %6, align 8, !tbaa !3
  %19 = load i32, ptr %8, align 4, !tbaa !8
  %20 = call ptr @ossl_ctx_global_properties(ptr noundef %18, i32 noundef %19)
  store ptr %20, ptr %11, align 8, !tbaa !33
  %21 = load ptr, ptr %11, align 8, !tbaa !33
  %22 = icmp ne ptr %21, null
  br i1 %22, label %23, label %74

23:                                               ; preds = %4
  %24 = load ptr, ptr %10, align 8, !tbaa !21
  %25 = icmp ne ptr %24, null
  br i1 %25, label %26, label %74

26:                                               ; preds = %23
  call void @llvm.lifetime.start.p0(i64 4, ptr %12) #6
  call void @llvm.lifetime.start.p0(i64 8, ptr %13) #6
  store ptr null, ptr %13, align 8, !tbaa !10
  call void @llvm.lifetime.start.p0(i64 8, ptr %14) #6
  %27 = load i32, ptr %9, align 4, !tbaa !8
  %28 = icmp ne i32 %27, 0
  br i1 %28, label %29, label %35

29:                                               ; preds = %26
  %30 = load ptr, ptr %6, align 8, !tbaa !3
  %31 = call i32 @ossl_global_properties_no_mirrored(ptr noundef %30)
  %32 = icmp ne i32 %31, 0
  br i1 %32, label %33, label %34

33:                                               ; preds = %29
  store i32 0, ptr %5, align 4
  store i32 1, ptr %15, align 4
  br label %73

34:                                               ; preds = %29
  br label %37

35:                                               ; preds = %26
  %36 = load ptr, ptr %6, align 8, !tbaa !3
  call void @ossl_global_properties_stop_mirroring(ptr noundef %36)
  br label %37

37:                                               ; preds = %35, %34
  %38 = load ptr, ptr %6, align 8, !tbaa !3
  %39 = load ptr, ptr %7, align 8, !tbaa !31
  %40 = call i64 @ossl_property_list_to_string(ptr noundef %38, ptr noundef %39, ptr noundef null, i64 noundef 0)
  store i64 %40, ptr %14, align 8, !tbaa !35
  %41 = load i64, ptr %14, align 8, !tbaa !35
  %42 = icmp ugt i64 %41, 0
  br i1 %42, label %43, label %46

43:                                               ; preds = %37
  %44 = load i64, ptr %14, align 8, !tbaa !35
  %45 = call noalias ptr @CRYPTO_malloc(i64 noundef %44, ptr noundef @.str, i32 noundef 482)
  store ptr %45, ptr %13, align 8, !tbaa !10
  br label %46

46:                                               ; preds = %43, %37
  %47 = load ptr, ptr %13, align 8, !tbaa !10
  %48 = icmp eq ptr %47, null
  br i1 %48, label %49, label %50

49:                                               ; preds = %46
  call void @ERR_new()
  call void @ERR_set_debug(ptr noundef @.str, i32 noundef 484, ptr noundef @__func__.evp_set_parsed_default_properties)
  call void (i32, i32, ptr, ...) @ERR_set_error(i32 noundef 6, i32 noundef 786691, ptr noundef null)
  store i32 0, ptr %5, align 4
  store i32 1, ptr %15, align 4
  br label %73

50:                                               ; preds = %46
  %51 = load ptr, ptr %6, align 8, !tbaa !3
  %52 = load ptr, ptr %7, align 8, !tbaa !31
  %53 = load ptr, ptr %13, align 8, !tbaa !10
  %54 = load i64, ptr %14, align 8, !tbaa !35
  %55 = call i64 @ossl_property_list_to_string(ptr noundef %51, ptr noundef %52, ptr noundef %53, i64 noundef %54)
  %56 = icmp eq i64 %55, 0
  br i1 %56, label %57, label %59

57:                                               ; preds = %50
  %58 = load ptr, ptr %13, align 8, !tbaa !10
  call void @CRYPTO_free(ptr noundef %58, ptr noundef @.str, i32 noundef 489)
  call void @ERR_new()
  call void @ERR_set_debug(ptr noundef @.str, i32 noundef 490, ptr noundef @__func__.evp_set_parsed_default_properties)
  call void (i32, i32, ptr, ...) @ERR_set_error(i32 noundef 6, i32 noundef 786691, ptr noundef null)
  store i32 0, ptr %5, align 4
  store i32 1, ptr %15, align 4
  br label %73

59:                                               ; preds = %50
  %60 = load ptr, ptr %6, align 8, !tbaa !3
  %61 = load ptr, ptr %13, align 8, !tbaa !10
  %62 = call i32 @ossl_provider_default_props_update(ptr noundef %60, ptr noundef %61)
  %63 = load ptr, ptr %13, align 8, !tbaa !10
  call void @CRYPTO_free(ptr noundef %63, ptr noundef @.str, i32 noundef 494)
  %64 = load ptr, ptr %11, align 8, !tbaa !33
  %65 = load ptr, ptr %64, align 8, !tbaa !31
  call void @ossl_property_free(ptr noundef %65)
  %66 = load ptr, ptr %7, align 8, !tbaa !31
  %67 = load ptr, ptr %11, align 8, !tbaa !33
  store ptr %66, ptr %67, align 8, !tbaa !31
  %68 = load ptr, ptr %10, align 8, !tbaa !21
  %69 = call i32 @ossl_method_store_cache_flush_all(ptr noundef %68)
  store i32 %69, ptr %12, align 4, !tbaa !8
  %70 = load ptr, ptr %6, align 8, !tbaa !3
  %71 = call i32 @ossl_decoder_cache_flush(ptr noundef %70)
  %72 = load i32, ptr %12, align 4, !tbaa !8
  store i32 %72, ptr %5, align 4
  store i32 1, ptr %15, align 4
  br label %73

73:                                               ; preds = %59, %57, %49, %33
  call void @llvm.lifetime.end.p0(i64 8, ptr %14) #6
  call void @llvm.lifetime.end.p0(i64 8, ptr %13) #6
  call void @llvm.lifetime.end.p0(i64 4, ptr %12) #6
  br label %75

74:                                               ; preds = %23, %4
  call void @ERR_new()
  call void @ERR_set_debug(ptr noundef @.str, i32 noundef 505, ptr noundef @__func__.evp_set_parsed_default_properties)
  call void (i32, i32, ptr, ...) @ERR_set_error(i32 noundef 6, i32 noundef 786691, ptr noundef null)
  store i32 0, ptr %5, align 4
  store i32 1, ptr %15, align 4
  br label %75

75:                                               ; preds = %74, %73
  call void @llvm.lifetime.end.p0(i64 8, ptr %11) #6
  call void @llvm.lifetime.end.p0(i64 8, ptr %10) #6
  %76 = load i32, ptr %5, align 4
  ret i32 %76
}