; Function Attrs: nounwind uwtable
define internal fastcc i32 @evp_set_parsed_default_properties(ptr noundef %0, ptr noundef %1, i32 noundef %2, i32 noundef %3) unnamed_addr #0 {
  %5 = tail call ptr @ossl_lib_ctx_get_data(ptr noundef %0, i32 noundef 0) #5
  %6 = tail call ptr @ossl_ctx_global_properties(ptr noundef %0, i32 noundef %2) #5
  %7 = icmp ne ptr %6, null
  %8 = icmp ne ptr %5, null
  %or.cond = select i1 %7, i1 %8, i1 false
  br i1 %or.cond, label %9, label %27

9:                                                ; preds = %4
  %.not = icmp eq i32 %3, 0
  br i1 %.not, label %12, label %10

10:                                               ; preds = %9
  %11 = tail call i32 @ossl_global_properties_no_mirrored(ptr noundef %0) #5
  %.not32 = icmp eq i32 %11, 0
  br i1 %.not32, label %13, label %28

12:                                               ; preds = %9
  tail call void @ossl_global_properties_stop_mirroring(ptr noundef %0) #5
  br label %13

13:                                               ; preds = %10, %12
  %14 = tail call i64 @ossl_property_list_to_string(ptr noundef %0, ptr noundef %1, ptr noundef null, i64 noundef 0) #5
  %.not33 = icmp eq i64 %14, 0
  br i1 %.not33, label %.thread, label %15

15:                                               ; preds = %13
  %16 = tail call noalias ptr @CRYPTO_malloc(i64 noundef %14, ptr noundef nonnull @.str, i32 noundef 482) #5
  %17 = icmp eq ptr %16, null
  br i1 %17, label %.thread, label %18

.thread:                                          ; preds = %13, %15
  tail call void @ERR_new() #5
  tail call void @ERR_set_debug(ptr noundef nonnull @.str, i32 noundef 484, ptr noundef nonnull @__func__.evp_set_parsed_default_properties) #5
  tail call void (i32, i32, ptr, ...) @ERR_set_error(i32 noundef 6, i32 noundef 786691, ptr noundef null) #5
  br label %28

18:                                               ; preds = %15
  %19 = tail call i64 @ossl_property_list_to_string(ptr noundef %0, ptr noundef %1, ptr noundef nonnull %16, i64 noundef %14) #5
  %20 = icmp eq i64 %19, 0
  br i1 %20, label %21, label %22

21:                                               ; preds = %18
  tail call void @CRYPTO_free(ptr noundef nonnull %16, ptr noundef nonnull @.str, i32 noundef 489) #5
  tail call void @ERR_new() #5
  tail call void @ERR_set_debug(ptr noundef nonnull @.str, i32 noundef 490, ptr noundef nonnull @__func__.evp_set_parsed_default_properties) #5
  tail call void (i32, i32, ptr, ...) @ERR_set_error(i32 noundef 6, i32 noundef 786691, ptr noundef null) #5
  br label %28

22:                                               ; preds = %18
  %23 = tail call i32 @ossl_provider_default_props_update(ptr noundef %0, ptr noundef nonnull %16) #5
  tail call void @CRYPTO_free(ptr noundef nonnull %16, ptr noundef nonnull @.str, i32 noundef 494) #5
  %24 = load ptr, ptr %6, align 8, !tbaa !24
  tail call void @ossl_property_free(ptr noundef %24) #5
  store ptr %1, ptr %6, align 8, !tbaa !24
  %25 = tail call i32 @ossl_method_store_cache_flush_all(ptr noundef nonnull %5) #5
  %26 = tail call i32 @ossl_decoder_cache_flush(ptr noundef %0) #5
  br label %28

27:                                               ; preds = %4
  tail call void @ERR_new() #5
  tail call void @ERR_set_debug(ptr noundef nonnull @.str, i32 noundef 505, ptr noundef nonnull @__func__.evp_set_parsed_default_properties) #5
  tail call void (i32, i32, ptr, ...) @ERR_set_error(i32 noundef 6, i32 noundef 786691, ptr noundef null) #5
  br label %28

28:                                               ; preds = %.thread, %21, %22, %10, %27
  %.1 = phi i32 [ 0, %27 ], [ 0, %.thread ], [ 0, %21 ], [ %25, %22 ], [ 0, %10 ]
  ret i32 %.1
}